target datalayout = "e-m:e-p270:32:32-p271:32:32-p272:64:64-i64:64-i128:128-f80:128-n8:16:32:64-S128"
target triple = "x86_64-pc-linux-gnu"

%"struct.faiss::IndexFlatCodes" = type { %"struct.faiss::Index.base", i64, %"class.std::vector" }
%"struct.faiss::Index.base" = type <{ ptr, i32, [4 x i8], i64, i8, i8, [2 x i8], i32, float }>
%"class.std::vector" = type { %"struct.std::_Vector_base" }
%"struct.std::_Vector_base" = type { %"struct.std::_Vector_base<unsigned char, std::allocator<unsigned char>>::_Vector_impl" }
%"struct.std::_Vector_base<unsigned char, std::allocator<unsigned char>>::_Vector_impl" = type { %"struct.std::_Vector_base<unsigned char, std::allocator<unsigned char>>::_Vector_impl_data" }
%"struct.std::_Vector_base<unsigned char, std::allocator<unsigned char>>::_Vector_impl_data" = type { ptr, ptr, ptr }
%"class.std::vector.3" = type { %"struct.std::_Vector_base.4" }
%"struct.std::_Vector_base.4" = type { %"struct.std::_Vector_base<float, std::allocator<float>>::_Vector_impl" }
%"struct.std::_Vector_base<float, std::allocator<float>>::_Vector_impl" = type { %"struct.std::_Vector_base<float, std::allocator<float>>::_Vector_impl_data" }
%"struct.std::_Vector_base<float, std::allocator<float>>::_Vector_impl_data" = type { ptr, ptr, ptr }
%"struct.faiss::Index" = type <{ ptr, i32, [4 x i8], i64, i8, i8, [2 x i8], i32, float, [4 x i8] }>
%"struct.faiss::IndexNeuralNetCodec" = type { %"struct.faiss::IndexFlatCodes", ptr, i64, i64 }
%"struct.faiss::IndexQINCo" = type { %"struct.faiss::IndexNeuralNetCodec", %"struct.faiss::QINCo" }
%"struct.faiss::QINCo" = type { %"struct.faiss::NeuralNetCodec", i32, i32, i32, %"struct.faiss::nn::Embedding", %"class.std::vector.14" }
%"struct.faiss::NeuralNetCodec" = type { ptr, i32, i32 }
%"struct.faiss::nn::Embedding" = type { i64, i64, %"class.std::vector.3" }
%"class.std::vector.14" = type { %"struct.std::_Vector_base.15" }
%"struct.std::_Vector_base.15" = type { %"struct.std::_Vector_base<faiss::QINCoStep, std::allocator<faiss::QINCoStep>>::_Vector_impl" }
%"struct.std::_Vector_base<faiss::QINCoStep, std::allocator<faiss::QINCoStep>>::_Vector_impl" = type { %"struct.std::_Vector_base<faiss::QINCoStep, std::allocator<faiss::QINCoStep>>::_Vector_impl_data" }
%"struct.std::_Vector_base<faiss::QINCoStep, std::allocator<faiss::QINCoStep>>::_Vector_impl_data" = type { ptr, ptr, ptr }

; Function Attrs: mustprogress uwtable
define void @_ZN5faiss19IndexNeuralNetCodecC2EiiiNS_10MetricTypeE(ptr noundef nonnull align 8 dereferenceable(96) %0, i32 noundef %1, i32 noundef %2, i32 noundef %3, i32 noundef %4) unnamed_addr #2 align 2 {
  %6 = alloca ptr, align 8
  %7 = alloca i32, align 4
  %8 = alloca i32, align 4
  %9 = alloca i32, align 4
  %10 = alloca i32, align 4
  store ptr %0, ptr %6, align 8, !tbaa !11
  store i32 %1, ptr %7, align 4, !tbaa !36
  store i32 %2, ptr %8, align 4, !tbaa !36
  store i32 %3, ptr %9, align 4, !tbaa !36
  store i32 %4, ptr %10, align 4, !tbaa !37
  %11 = load ptr, ptr %6, align 8
  %12 = load i32, ptr %8, align 4, !tbaa !36
  %13 = load i32, ptr %9, align 4, !tbaa !36
  %14 = mul nsw i32 %12, %13
  %15 = add nsw i32 %14, 7
  %16 = sdiv i32 %15, 8
  %17 = sext i32 %16 to i64
  %18 = load i32, ptr %7, align 4, !tbaa !36
  %19 = sext i32 %18 to i64
  %20 = load i32, ptr %10, align 4, !tbaa !37
  call void @_ZN5faiss14IndexFlatCodesC2EmlNS_10MetricTypeE(ptr noundef nonnull align 8 dereferenceable(72) %11, i64 noundef %17, i64 noundef %19, i32 noundef %20)
  store ptr getelementptr inbounds inrange(-16, 192) ({ [26 x ptr] }, ptr @_ZTVN5faiss19IndexNeuralNetCodecE, i32 0, i32 0, i32 2), ptr %11, align 8, !tbaa !9
  %21 = getelementptr inbounds nuw %"struct.faiss::IndexNeuralNetCodec", ptr %11, i32 0, i32 1
  store ptr null, ptr %21, align 8, !tbaa !25
  %22 = getelementptr inbounds nuw %"struct.faiss::IndexNeuralNetCodec", ptr %11, i32 0, i32 2
  %23 = load i32, ptr %8, align 4, !tbaa !36
  %24 = sext i32 %23 to i64
  store i64 %24, ptr %22, align 8, !tbaa !33
  %25 = getelementptr inbounds nuw %"struct.faiss::IndexNeuralNetCodec", ptr %11, i32 0, i32 3
  %26 = load i32, ptr %9, align 4, !tbaa !36
  %27 = sext i32 %26 to i64
  store i64 %27, ptr %25, align 8, !tbaa !34
  %28 = getelementptr inbounds nuw %"struct.faiss::Index", ptr %11, i32 0, i32 5
  store i8 0, ptr %28, align 1, !tbaa !38
  ret void
}

; Function Attrs: mustprogress uwtable
define void @_ZN5faiss10IndexQINCoC2EiiiiiNS_10MetricTypeE(ptr noundef nonnull align 8 dereferenceable(192) %0, i32 noundef %1, i32 noundef %2, i32 noundef %3, i32 noundef %4, i32 noundef %5, i32 noundef %6) unnamed_addr #2 align 2 personality ptr @__gxx_personality_v0 {
  %8 = alloca ptr, align 8
  %9 = alloca i32, align 4
  %10 = alloca i32, align 4
  %11 = alloca i32, align 4
  %12 = alloca i32, align 4
  %13 = alloca i32, align 4
  %14 = alloca i32, align 4
  %15 = alloca ptr, align 8
  %16 = alloca i32, align 4
  store ptr %0, ptr %8, align 8, !tbaa !91
  store i32 %1, ptr %9, align 4, !tbaa !36
  store i32 %2, ptr %10, align 4, !tbaa !36
  store i32 %3, ptr %11, align 4, !tbaa !36
  store i32 %4, ptr %12, align 4, !tbaa !36
  store i32 %5, ptr %13, align 4, !tbaa !36
  store i32 %6, ptr %14, align 4, !tbaa !37
  %17 = load ptr, ptr %8, align 8
  %18 = load i32, ptr %9, align 4, !tbaa !36
  %19 = load i32, ptr %10, align 4, !tbaa !36
  %20 = load i32, ptr %11, align 4, !tbaa !36
  %21 = load i32, ptr %14, align 4, !tbaa !37
  call void @_ZN5faiss19IndexNeuralNetCodecC2EiiiNS_10MetricTypeE(ptr noundef nonnull align 8 dereferenceable(96) %17, i32 noundef %18, i32 noundef %19, i32 noundef %20, i32 noundef %21)
  store ptr getelementptr inbounds inrange(-16, 192) ({ [26 x ptr] }, ptr @_ZTVN5faiss10IndexQINCoE, i32 0, i32 0, i32 2), ptr %17, align 8, !tbaa !9
  %22 = getelementptr inbounds nuw %"struct.faiss::IndexQINCo", ptr %17, i32 0, i32 1
  %23 = load i32, ptr %9, align 4, !tbaa !36
  %24 = load i32, ptr %11, align 4, !tbaa !36
  %25 = shl i32 1, %24
  %26 = load i32, ptr %12, align 4, !tbaa !36
  %27 = load i32, ptr %10, align 4, !tbaa !36
  %28 = load i32, ptr %13, align 4, !tbaa !36
  invoke void @_ZN5faiss5QINCoC1Eiiiii(ptr noundef nonnull align 8 dereferenceable(96) %22, i32 noundef %23, i32 noundef %25, i32 noundef %26, i32 noundef %27, i32 noundef %28)
          to label %29 unwind label %32

29:                                               ; preds = %7
  %30 = getelementptr inbounds nuw %"struct.faiss::IndexQINCo", ptr %17, i32 0, i32 1
  %31 = getelementptr inbounds nuw %"struct.faiss::IndexNeuralNetCodec", ptr %17, i32 0, i32 1
  store ptr %30, ptr %31, align 8, !tbaa !25
  ret void

32:                                               ; preds = %7
  %33 = landingpad { ptr, i32 }
          cleanup
  %34 = extractvalue { ptr, i32 } %33, 0
  store ptr %34, ptr %15, align 8
  %35 = extractvalue { ptr, i32 } %33, 1
  store i32 %35, ptr %16, align 4
  call void @_ZN5faiss14IndexFlatCodesD2Ev(ptr noundef nonnull align 8 dereferenceable(96) %17) #12
  br label %36

36:                                               ; preds = %32
  %37 = load ptr, ptr %15, align 8
  %38 = load i32, ptr %16, align 4
  %39 = insertvalue { ptr, i32 } poison, ptr %37, 0
  %40 = insertvalue { ptr, i32 } %39, i32 %38, 1
  resume { ptr, i32 } %40
}