; Function Attrs: mustprogress uwtable
define void @_ZN5faiss10IndexQINCoC2EiiiiiNS_10MetricTypeE(ptr noundef nonnull align 8 dereferenceable(192) %0, i32 noundef %1, i32 noundef %2, i32 noundef %3, i32 noundef %4, i32 noundef %5, i32 noundef %6) unnamed_addr #4 align 2 personality ptr @__gxx_personality_v0 {
  %8 = mul nsw i32 %3, %2
  %9 = add nsw i32 %8, 7
  %10 = sdiv i32 %9, 8
  %11 = sext i32 %10 to i64
  %12 = sext i32 %1 to i64
  tail call void @_ZN5faiss14IndexFlatCodesC2EmlNS_10MetricTypeE(ptr noundef nonnull align 8 dereferenceable(96) %0, i64 noundef %11, i64 noundef %12, i32 noundef %6)
  %13 = getelementptr inbounds nuw i8, ptr %0, i64 72
  store ptr null, ptr %13, align 8, !tbaa !27
  %14 = getelementptr inbounds nuw i8, ptr %0, i64 80
  %15 = sext i32 %2 to i64
  store i64 %15, ptr %14, align 8, !tbaa !34
  %16 = getelementptr inbounds nuw i8, ptr %0, i64 88
  %17 = sext i32 %3 to i64
  store i64 %17, ptr %16, align 8, !tbaa !35
  %18 = getelementptr inbounds nuw i8, ptr %0, i64 25
  store i8 0, ptr %18, align 1, !tbaa !45
  store ptr getelementptr inbounds nuw inrange(-16, 192) (i8, ptr @_ZTVN5faiss10IndexQINCoE, i64 16), ptr %0, align 8, !tbaa !4
  %19 = getelementptr inbounds nuw i8, ptr %0, i64 96
  %20 = shl nuw i32 1, %3
  invoke void @_ZN5faiss5QINCoC1Eiiiii(ptr noundef nonnull align 8 dereferenceable(96) %19, i32 noundef %1, i32 noundef %20, i32 noundef %4, i32 noundef %2, i32 noundef %5)
          to label %21 unwind label %22

21:                                               ; preds = %7
  store ptr %19, ptr %13, align 8, !tbaa !27
  ret void

22:                                               ; preds = %7
  %23 = landingpad { ptr, i32 }
          cleanup
  tail call void @_ZN5faiss14IndexFlatCodesD2Ev(ptr noundef nonnull align 8 dereferenceable(96) %0) #12
  resume { ptr, i32 } %23
}